target datalayout = "e-m:e-p270:32:32-p271:32:32-p272:64:64-i64:64-i128:128-f80:128-n8:16:32:64-S128"
target triple = "x86_64-pc-linux-gnu"

%struct.H5FS_hdr_cache_ud_t = type { ptr, i16, ptr, ptr, i64 }

; Function Attrs: nounwind uwtable
define internal i32 @H5FS__cache_hdr_get_initial_load_size(ptr noundef %0, ptr noundef %1) #0 {
  %3 = alloca ptr, align 8
  %4 = alloca ptr, align 8
  %5 = alloca ptr, align 8
  store ptr %0, ptr %3, align 8
  store ptr %1, ptr %4, align 8
  %6 = load ptr, ptr %3, align 8
  store ptr %6, ptr %5, align 8
  %7 = load ptr, ptr %5, align 8
  %8 = getelementptr inbounds %struct.H5FS_hdr_cache_ud_t, ptr %7, i32 0, i32 0
  %9 = load ptr, ptr %8, align 8
  %10 = call zeroext i8 @H5F_sizeof_size(ptr noundef %9)
  %11 = zext i8 %10 to i32
  %12 = add i32 10, %11
  %13 = load ptr, ptr %5, align 8
  %14 = getelementptr inbounds %struct.H5FS_hdr_cache_ud_t, ptr %13, i32 0, i32 0
  %15 = load ptr, ptr %14, align 8
  %16 = call zeroext i8 @H5F_sizeof_size(ptr noundef %15)
  %17 = zext i8 %16 to i32
  %18 = add i32 %12, %17
  %19 = load ptr, ptr %5, align 8
  %20 = getelementptr inbounds %struct.H5FS_hdr_cache_ud_t, ptr %19, i32 0, i32 0
  %21 = load ptr, ptr %20, align 8
  %22 = call zeroext i8 @H5F_sizeof_size(ptr noundef %21)
  %23 = zext i8 %22 to i32
  %24 = add i32 %18, %23
  %25 = load ptr, ptr %5, align 8
  %26 = getelementptr inbounds %struct.H5FS_hdr_cache_ud_t, ptr %25, i32 0, i32 0
  %27 = load ptr, ptr %26, align 8
  %28 = call zeroext i8 @H5F_sizeof_size(ptr noundef %27)
  %29 = zext i8 %28 to i32
  %30 = add i32 %24, %29
  %31 = add i32 %30, 2
  %32 = add i32 %31, 2
  %33 = add i32 %32, 2
  %34 = add i32 %33, 2
  %35 = load ptr, ptr %5, align 8
  %36 = getelementptr inbounds %struct.H5FS_hdr_cache_ud_t, ptr %35, i32 0, i32 0
  %37 = load ptr, ptr %36, align 8
  %38 = call zeroext i8 @H5F_sizeof_size(ptr noundef %37)
  %39 = zext i8 %38 to i32
  %40 = add i32 %34, %39
  %41 = load ptr, ptr %5, align 8
  %42 = getelementptr inbounds %struct.H5FS_hdr_cache_ud_t, ptr %41, i32 0, i32 0
  %43 = load ptr, ptr %42, align 8
  %44 = call zeroext i8 @H5F_sizeof_addr(ptr noundef %43)
  %45 = zext i8 %44 to i32
  %46 = add i32 %40, %45
  %47 = load ptr, ptr %5, align 8
  %48 = getelementptr inbounds %struct.H5FS_hdr_cache_ud_t, ptr %47, i32 0, i32 0
  %49 = load ptr, ptr %48, align 8
  %50 = call zeroext i8 @H5F_sizeof_size(ptr noundef %49)
  %51 = zext i8 %50 to i32
  %52 = add i32 %46, %51
  %53 = load ptr, ptr %5, align 8
  %54 = getelementptr inbounds %struct.H5FS_hdr_cache_ud_t, ptr %53, i32 0, i32 0
  %55 = load ptr, ptr %54, align 8
  %56 = call zeroext i8 @H5F_sizeof_size(ptr noundef %55)
  %57 = zext i8 %56 to i32
  %58 = add i32 %52, %57
  %59 = zext i32 %58 to i64
  %60 = load ptr, ptr %4, align 8
  store i64 %59, ptr %60, align 8
  ret i32 0
}