; Function Attrs: nounwind uwtable
define internal noundef i32 @H5FS__cache_hdr_get_initial_load_size(ptr nocapture noundef readonly %0, ptr nocapture noundef writeonly %1) #0 {
  %3 = load ptr, ptr %0, align 8
  %4 = tail call zeroext i8 @H5F_sizeof_size(ptr noundef %3) #7
  %5 = zext i8 %4 to i64
  %6 = load ptr, ptr %0, align 8
  %7 = tail call zeroext i8 @H5F_sizeof_size(ptr noundef %6) #7
  %8 = zext i8 %7 to i64
  %9 = load ptr, ptr %0, align 8
  %10 = tail call zeroext i8 @H5F_sizeof_size(ptr noundef %9) #7
  %11 = zext i8 %10 to i64
  %12 = load ptr, ptr %0, align 8
  %13 = tail call zeroext i8 @H5F_sizeof_size(ptr noundef %12) #7
  %14 = zext i8 %13 to i64
  %15 = load ptr, ptr %0, align 8
  %16 = tail call zeroext i8 @H5F_sizeof_size(ptr noundef %15) #7
  %17 = zext i8 %16 to i64
  %18 = load ptr, ptr %0, align 8
  %19 = tail call zeroext i8 @H5F_sizeof_addr(ptr noundef %18) #7
  %20 = zext i8 %19 to i64
  %21 = load ptr, ptr %0, align 8
  %22 = tail call zeroext i8 @H5F_sizeof_size(ptr noundef %21) #7
  %23 = zext i8 %22 to i64
  %24 = load ptr, ptr %0, align 8
  %25 = tail call zeroext i8 @H5F_sizeof_size(ptr noundef %24) #7
  %26 = zext i8 %25 to i64
  %27 = add nuw nsw i64 %5, 18
  %28 = add nuw nsw i64 %27, %8
  %29 = add nuw nsw i64 %28, %11
  %30 = add nuw nsw i64 %29, %14
  %31 = add nuw nsw i64 %30, %17
  %32 = add nuw nsw i64 %31, %20
  %33 = add nuw nsw i64 %32, %23
  %34 = add nuw nsw i64 %33, %26
  store i64 %34, ptr %1, align 8
  ret i32 0
}